(lp0
(lp1
a(lp2
(S'http://www.hackforums.net/archive/index.php/thread-3393285.html'
p3
S'[$25] Imminent Monitor | The Fastest RAT On Hackforums | FUD | Autobuy'
p4
tp5
a(S'http://www.hackforums.net/archive/index.php/thread-3615316.html'
p6
S'jRAT 4 [PAST BETA] [0,25 BTC | LTC] [PLUGINS INCLUDED] [1 Y+] [4.0.1] [UPDATE 07/15]'
p7
tp8
a(S'http://www.hackforums.net/archive/index.php/thread-3394541.html'
p9
S'BlackShades Products | BEST RAT GUARANTEED | KEYLOGGER | FUD Crypter | Silent JDB'
p10
tp11
a(S'http://www.hackforums.net/archive/index.php/thread-3473188.html'
p12
S'\xe2\x98\x85AndroRat APK Binder + Builder\xe2\x98\x85 First EVER Android Rat APK Binder \xe2\x98\x85 $37'
p13
tp14
a(S'http://www.hackforums.net/archive/index.php/thread-3625574.html'
p15
S'Skype help set up dark comet'
p16
tp17
a(S'http://www.hackforums.net/archive/index.php/thread-3625594.html'
p18
S'Teenage kids?'
p19
tp20
a(S'http://www.hackforums.net/archive/index.php/thread-3616191.html'
p21
S'DarkComet Questions [ Post here ]'
p22
tp23
a(S'http://www.hackforums.net/archive/index.php/thread-3625496.html'
p24
S'DC RAT/port forwarding issue'
p25
tp26
a(S'http://www.hackforums.net/archive/index.php/thread-3625285.html'
p27
S'Keylogging feature on Darkcomet'
p28
tp29
a(S'http://www.hackforums.net/archive/index.php/thread-3625312.html'
p30
S'Installing a RAT with just their IP?'
p31
tp32
a(S'http://www.hackforums.net/archive/index.php/thread-3625495.html'
p33
S'Need help with Stub/Server file'
p34
tp35
a(S'http://www.hackforums.net/archive/index.php/thread-3625507.html'
p36
S'Need help with Darkcomet setup team viewer'
p37
tp38
a(S'http://www.hackforums.net/archive/index.php/thread-3622697.html'
p39
S'Anyone knows how to remove persistent server???'
p40
tp41
a(S'http://www.hackforums.net/archive/index.php/thread-3625350.html'
p42
S'Need a test slave'
p43
tp44
a(S'http://www.hackforums.net/archive/index.php/thread-3625198.html'
p45
S'RAT Question'
p46
tp47
a(S'http://www.hackforums.net/archive/index.php/thread-3625439.html'
p48
S'HQ Icon Pack for RATing'
p49
tp50
a(S'http://www.hackforums.net/archive/index.php/thread-3625461.html'
p51
S'Random PC connecting?'
p52
tp53
a(S'http://www.hackforums.net/archive/index.php/thread-3591543.html'
p54
S'[Help] Somebody please help me setup DarkComet and help with it [Help]'
p55
tp56
a(S'http://www.hackforums.net/archive/index.php/thread-3607245.html'
p57
S'{Emissary} NET Recode Progress Thread [Looking For Beta Testers]'
p58
tp59
a(S'http://www.hackforums.net/archive/index.php/thread-3601929.html'
p60
S'legacyLink vs Blackshades'
p61
tp62
a(S'http://www.hackforums.net/archive/index.php/thread-3623887.html'
p63
S'I dont always get girl slaves....'
p64
tp65
a(S'http://www.hackforums.net/archive/index.php/thread-3624972.html'
p66
S'about pdf injection'
p67
tp68
a(S'http://www.hackforums.net/archive/index.php/thread-3624191.html'
p69
S'RAT Assistance'
p70
tp71
a(S'http://www.hackforums.net/archive/index.php/thread-3621026.html'
p72
S'[Request] RAT Help [DarkComet]'
p73
tp74
aa(lp75
S'http://www.hackforums.net/archive/index.php/thread-3393285-2.html'
p76
aS'http://www.hackforums.net/archive/index.php/thread-3393285-3.html'
p77
aS'http://www.hackforums.net/archive/index.php/thread-3393285-4.html'
p78
aS'http://www.hackforums.net/archive/index.php/thread-3393285-5.html'
p79
aS'http://www.hackforums.net/archive/index.php/thread-3393285-6.html'
p80
aS'http://www.hackforums.net/archive/index.php/thread-3393285-7.html'
p81
aS'http://www.hackforums.net/archive/index.php/thread-3393285-8.html'
p82
aS'http://www.hackforums.net/archive/index.php/thread-3393285-9.html'
p83
aS'http://www.hackforums.net/archive/index.php/thread-3393285-10.html'
p84
aS'http://www.hackforums.net/archive/index.php/thread-3393285-11.html'
p85
aS'http://www.hackforums.net/archive/index.php/thread-3393285-12.html'
p86
aS'http://www.hackforums.net/archive/index.php/thread-3393285-13.html'
p87
aS'http://www.hackforums.net/archive/index.php/thread-3393285-14.html'
p88
aS'http://www.hackforums.net/archive/index.php/thread-3393285-15.html'
p89
aS'http://www.hackforums.net/archive/index.php/thread-3393285-16.html'
p90
aS'http://www.hackforums.net/archive/index.php/thread-3393285-17.html'
p91
aS'http://www.hackforums.net/archive/index.php/thread-3393285-18.html'
p92
aS'http://www.hackforums.net/archive/index.php/thread-3393285-19.html'
p93
aS'http://www.hackforums.net/archive/index.php/thread-3393285-20.html'
p94
aS'http://www.hackforums.net/archive/index.php/thread-3393285-21.html'
p95
aS'http://www.hackforums.net/archive/index.php/thread-3393285-22.html'
p96
aS'http://www.hackforums.net/archive/index.php/thread-3393285-23.html'
p97
aS'http://www.hackforums.net/archive/index.php/thread-3393285-24.html'
p98
aS'http://www.hackforums.net/archive/index.php/thread-3393285-25.html'
p99
aS'http://www.hackforums.net/archive/index.php/thread-3393285-26.html'
p100
aS'http://www.hackforums.net/archive/index.php/thread-3393285-27.html'
p101
aS'http://www.hackforums.net/archive/index.php/thread-3393285-28.html'
p102
aS'http://www.hackforums.net/archive/index.php/thread-3393285-29.html'
p103
aS'http://www.hackforums.net/archive/index.php/thread-3393285-30.html'
p104
aS'http://www.hackforums.net/archive/index.php/thread-3393285-31.html'
p105
aS'http://www.hackforums.net/archive/index.php/thread-3393285-32.html'
p106
aS'http://www.hackforums.net/archive/index.php/thread-3393285-33.html'
p107
aS'http://www.hackforums.net/archive/index.php/thread-3393285-34.html'
p108
aS'http://www.hackforums.net/archive/index.php/thread-3393285-35.html'
p109
aS'http://www.hackforums.net/archive/index.php/thread-3393285-36.html'
p110
aS'http://www.hackforums.net/archive/index.php/thread-3393285-37.html'
p111
aS'http://www.hackforums.net/archive/index.php/thread-3393285-38.html'
p112
aS'http://www.hackforums.net/archive/index.php/thread-3393285-39.html'
p113
aS'http://www.hackforums.net/archive/index.php/thread-3393285-40.html'
p114
aS'http://www.hackforums.net/archive/index.php/thread-3393285-41.html'
p115
aS'http://www.hackforums.net/archive/index.php/thread-3393285-42.html'
p116
aS'http://www.hackforums.net/archive/index.php/thread-3393285-43.html'
p117
aS'http://www.hackforums.net/archive/index.php/thread-3393285-44.html'
p118
aS'http://www.hackforums.net/archive/index.php/thread-3393285-45.html'
p119
aS'http://www.hackforums.net/archive/index.php/thread-3393285-46.html'
p120
aS'http://www.hackforums.net/archive/index.php/thread-3393285-47.html'
p121
aS'http://www.hackforums.net/archive/index.php/thread-3393285-48.html'
p122
aS'http://www.hackforums.net/archive/index.php/thread-3393285-49.html'
p123
aS'http://www.hackforums.net/archive/index.php/thread-3393285-50.html'
p124
aS'http://www.hackforums.net/archive/index.php/thread-3393285-51.html'
p125
aS'http://www.hackforums.net/archive/index.php/thread-3393285-52.html'
p126
aS'http://www.hackforums.net/archive/index.php/thread-3393285-53.html'
p127
aS'http://www.hackforums.net/archive/index.php/thread-3393285-54.html'
p128
aS'http://www.hackforums.net/archive/index.php/thread-3393285-55.html'
p129
aS'http://www.hackforums.net/archive/index.php/thread-3393285-56.html'
p130
aS'http://www.hackforums.net/archive/index.php/thread-3393285-57.html'
p131
aS'http://www.hackforums.net/archive/index.php/thread-3393285-58.html'
p132
aS'http://www.hackforums.net/archive/index.php/thread-3393285-59.html'
p133
aS'http://www.hackforums.net/archive/index.php/thread-3393285-60.html'
p134
aS'http://www.hackforums.net/archive/index.php/thread-3393285-61.html'
p135
aS'http://www.hackforums.net/archive/index.php/thread-3393285-62.html'
p136
aS'http://www.hackforums.net/archive/index.php/thread-3393285-63.html'
p137
aS'http://www.hackforums.net/archive/index.php/thread-3393285-64.html'
p138
aS'http://www.hackforums.net/archive/index.php/thread-3393285-65.html'
p139
aS'http://www.hackforums.net/archive/index.php/thread-3393285-66.html'
p140
aS'http://www.hackforums.net/archive/index.php/thread-3393285-67.html'
p141
aS'http://www.hackforums.net/archive/index.php/thread-3393285-68.html'
p142
aS'http://www.hackforums.net/archive/index.php/thread-3393285-69.html'
p143
aS'http://www.hackforums.net/archive/index.php/thread-3393285-70.html'
p144
aS'http://www.hackforums.net/archive/index.php/thread-3393285-71.html'
p145
aS'http://www.hackforums.net/archive/index.php/thread-3393285-72.html'
p146
aS'http://www.hackforums.net/archive/index.php/thread-3393285-73.html'
p147
aS'http://www.hackforums.net/archive/index.php/thread-3393285-74.html'
p148
aS'http://www.hackforums.net/archive/index.php/thread-3393285-75.html'
p149
aS'http://www.hackforums.net/archive/index.php/thread-3393285-76.html'
p150
aS'http://www.hackforums.net/archive/index.php/thread-3393285-77.html'
p151
aS'http://www.hackforums.net/archive/index.php/thread-3393285-78.html'
p152
aS'http://www.hackforums.net/archive/index.php/thread-3393285-79.html'
p153
aS'http://www.hackforums.net/archive/index.php/thread-3393285-80.html'
p154
aS'http://www.hackforums.net/archive/index.php/thread-3393285-81.html'
p155
aS'http://www.hackforums.net/archive/index.php/thread-3393285-82.html'
p156
aS'http://www.hackforums.net/archive/index.php/thread-3393285-83.html'
p157
aS'http://www.hackforums.net/archive/index.php/thread-3393285-84.html'
p158
aS'http://www.hackforums.net/archive/index.php/thread-3393285-85.html'
p159
aS'http://www.hackforums.net/archive/index.php/thread-3393285-86.html'
p160
aS'http://www.hackforums.net/archive/index.php/thread-3393285-87.html'
p161
aS'http://www.hackforums.net/archive/index.php/thread-3393285-88.html'
p162
aS'http://www.hackforums.net/archive/index.php/thread-3393285-89.html'
p163
aS'http://www.hackforums.net/archive/index.php/thread-3393285-90.html'
p164
aS'http://www.hackforums.net/archive/index.php/thread-3393285-91.html'
p165
aS'http://www.hackforums.net/archive/index.php/thread-3393285-92.html'
p166
aS'http://www.hackforums.net/archive/index.php/thread-3393285-93.html'
p167
aS'http://www.hackforums.net/archive/index.php/thread-3393285-94.html'
p168
aS'http://www.hackforums.net/archive/index.php/thread-3393285-95.html'
p169
aS'http://www.hackforums.net/archive/index.php/thread-3393285-96.html'
p170
aS'http://www.hackforums.net/archive/index.php/thread-3393285-97.html'
p171
aS'http://www.hackforums.net/archive/index.php/thread-3393285-98.html'
p172
aS'http://www.hackforums.net/archive/index.php/thread-3393285-99.html'
p173
aS'http://www.hackforums.net/archive/index.php/thread-3393285-100.html'
p174
aS'http://www.hackforums.net/archive/index.php/thread-3393285-101.html'
p175
aS'http://www.hackforums.net/archive/index.php/thread-3393285-102.html'
p176
aS'http://www.hackforums.net/archive/index.php/thread-3393285-103.html'
p177
aS'http://www.hackforums.net/archive/index.php/thread-3393285-104.html'
p178
aS'http://www.hackforums.net/archive/index.php/thread-3393285-105.html'
p179
aS'http://www.hackforums.net/archive/index.php/thread-3393285-106.html'
p180
aS'http://www.hackforums.net/archive/index.php/thread-3393285-107.html'
p181
aS'http://www.hackforums.net/archive/index.php/thread-3393285-108.html'
p182
aS'http://www.hackforums.net/archive/index.php/thread-3393285-109.html'
p183
aS'http://www.hackforums.net/archive/index.php/thread-3393285-110.html'
p184
aS'http://www.hackforums.net/archive/index.php/thread-3393285-111.html'
p185
aS'http://www.hackforums.net/archive/index.php/thread-3393285-112.html'
p186
aS'http://www.hackforums.net/archive/index.php/thread-3393285-113.html'
p187
aS'http://www.hackforums.net/archive/index.php/thread-3393285-114.html'
p188
aS'http://www.hackforums.net/archive/index.php/thread-3393285-115.html'
p189
aS'http://www.hackforums.net/archive/index.php/thread-3393285-116.html'
p190
aS'http://www.hackforums.net/archive/index.php/thread-3393285-117.html'
p191
aS'http://www.hackforums.net/archive/index.php/thread-3393285-118.html'
p192
aS'http://www.hackforums.net/archive/index.php/thread-3393285-119.html'
p193
aS'http://www.hackforums.net/archive/index.php/thread-3393285-120.html'
p194
aS'http://www.hackforums.net/archive/index.php/thread-3393285-121.html'
p195
aS'http://www.hackforums.net/archive/index.php/thread-3393285-122.html'
p196
aS'http://www.hackforums.net/archive/index.php/thread-3393285-123.html'
p197
aS'http://www.hackforums.net/archive/index.php/thread-3393285-124.html'
p198
aS'http://www.hackforums.net/archive/index.php/thread-3393285-125.html'
p199
aS'http://www.hackforums.net/archive/index.php/thread-3393285-126.html'
p200
aS'http://www.hackforums.net/archive/index.php/thread-3393285-127.html'
p201
aS'http://www.hackforums.net/archive/index.php/thread-3393285-128.html'
p202
aS'http://www.hackforums.net/archive/index.php/thread-3393285-129.html'
p203
aS'http://www.hackforums.net/archive/index.php/thread-3393285-130.html'
p204
aS'http://www.hackforums.net/archive/index.php/thread-3393285-131.html'
p205
aS'http://www.hackforums.net/archive/index.php/thread-3393285-132.html'
p206
aS'http://www.hackforums.net/archive/index.php/thread-3393285-133.html'
p207
aS'http://www.hackforums.net/archive/index.php/thread-3393285-134.html'
p208
aS'http://www.hackforums.net/archive/index.php/thread-3393285-135.html'
p209
aS'http://www.hackforums.net/archive/index.php/thread-3393285-136.html'
p210
aS'http://www.hackforums.net/archive/index.php/thread-3393285-137.html'
p211
aS'http://www.hackforums.net/archive/index.php/thread-3393285-138.html'
p212
aS'http://www.hackforums.net/archive/index.php/thread-3393285-139.html'
p213
aS'http://www.hackforums.net/archive/index.php/thread-3393285-140.html'
p214
aS'http://www.hackforums.net/archive/index.php/thread-3393285-141.html'
p215
aS'http://www.hackforums.net/archive/index.php/thread-3393285-142.html'
p216
aS'http://www.hackforums.net/archive/index.php/thread-3393285-143.html'
p217
aS'http://www.hackforums.net/archive/index.php/thread-3393285-144.html'
p218
aS'http://www.hackforums.net/archive/index.php/thread-3393285-145.html'
p219
aS'http://www.hackforums.net/archive/index.php/thread-3393285-146.html'
p220
aS'http://www.hackforums.net/archive/index.php/thread-3393285-147.html'
p221
aS'http://www.hackforums.net/archive/index.php/thread-3393285-148.html'
p222
aS'http://www.hackforums.net/archive/index.php/thread-3393285-149.html'
p223
aS'http://www.hackforums.net/archive/index.php/thread-3393285-150.html'
p224
aS'http://www.hackforums.net/archive/index.php/thread-3393285-151.html'
p225
aS'http://www.hackforums.net/archive/index.php/thread-3393285-152.html'
p226
aS'http://www.hackforums.net/archive/index.php/thread-3393285-153.html'
p227
aS'http://www.hackforums.net/archive/index.php/thread-3393285-154.html'
p228
aaI-1
aI0
aI26
aI10
a.